(lp0
(ipongClass
playerStats
p1
(dp2
S'wins'
p3
I0
sS'losses'
p4
I0
sS'name'
p5
S'Tom'
p6
sS'NM'
p7
I0
sS'UT'
p8
I0
sba(ipongClass
playerStats
p9
(dp10
g3
I0
sg4
I0
sg5
S'Matt'
p11
sg7
I0
sg8
I0
sba(ipongClass
playerStats
p12
(dp13
g3
I0
sg4
I0
sg5
S'Allyn'
p14
sg7
I0
sg8
I0
sba.