(lp0
(ipongClass
playerStats
p1
(dp2
S'pic'
p3
S'0.jpg'
p4
sS'name'
p5
S'Matt'
p6
sS'level'
p7
S'baby'
p8
sS'wins'
p9
I5
sS'losses'
p10
I0
sS'UT'
p11
I0
sS'NM'
p12
I0
sba(ipongClass
playerStats
p13
(dp14
g3
S'0.jpg'
p15
sg5
S'Tom'
p16
sg7
S'baby'
p17
sg9
I1
sg10
I0
sg11
I0
sg12
I0
sba(ipongClass
playerStats
p18
(dp19
g3
S'3.jpg'
p20
sg5
S'John'
p21
sg7
S'baby'
p22
sg9
I2
sg10
I0
sg11
I0
sg12
I0
sba.
